
spectre_test_1:     file format elf64-x86-64


Disassembly of section .init:

0000000000000548 <_init>:
 548:	48 83 ec 08          	sub    rsp,0x8
 54c:	48 8b 05 95 0a 20 00 	mov    rax,QWORD PTR [rip+0x200a95]        # 200fe8 <__gmon_start__>
 553:	48 85 c0             	test   rax,rax
 556:	74 02                	je     55a <_init+0x12>
 558:	ff d0                	call   rax
 55a:	48 83 c4 08          	add    rsp,0x8
 55e:	c3                   	ret    

Disassembly of section .plt:

0000000000000560 <.plt>:
 560:	ff 35 52 0a 20 00    	push   QWORD PTR [rip+0x200a52]        # 200fb8 <_GLOBAL_OFFSET_TABLE_+0x8>
 566:	ff 25 54 0a 20 00    	jmp    QWORD PTR [rip+0x200a54]        # 200fc0 <_GLOBAL_OFFSET_TABLE_+0x10>
 56c:	0f 1f 40 00          	nop    DWORD PTR [rax+0x0]

0000000000000570 <__stack_chk_fail@plt>:
 570:	ff 25 52 0a 20 00    	jmp    QWORD PTR [rip+0x200a52]        # 200fc8 <__stack_chk_fail@GLIBC_2.4>
 576:	68 00 00 00 00       	push   0x0
 57b:	e9 e0 ff ff ff       	jmp    560 <.plt>

0000000000000580 <printf@plt>:
 580:	ff 25 4a 0a 20 00    	jmp    QWORD PTR [rip+0x200a4a]        # 200fd0 <printf@GLIBC_2.2.5>
 586:	68 01 00 00 00       	push   0x1
 58b:	e9 d0 ff ff ff       	jmp    560 <.plt>

Disassembly of section .plt.got:

0000000000000590 <__cxa_finalize@plt>:
 590:	ff 25 62 0a 20 00    	jmp    QWORD PTR [rip+0x200a62]        # 200ff8 <__cxa_finalize@GLIBC_2.2.5>
 596:	66 90                	xchg   ax,ax

Disassembly of section .text:

00000000000005a0 <_start>:
 5a0:	31 ed                	xor    ebp,ebp
 5a2:	49 89 d1             	mov    r9,rdx
 5a5:	5e                   	pop    rsi
 5a6:	48 89 e2             	mov    rdx,rsp
 5a9:	48 83 e4 f0          	and    rsp,0xfffffffffffffff0
 5ad:	50                   	push   rax
 5ae:	54                   	push   rsp
 5af:	4c 8d 05 da 02 00 00 	lea    r8,[rip+0x2da]        # 890 <__libc_csu_fini>
 5b6:	48 8d 0d 63 02 00 00 	lea    rcx,[rip+0x263]        # 820 <__libc_csu_init>
 5bd:	48 8d 3d e6 00 00 00 	lea    rdi,[rip+0xe6]        # 6aa <main>
 5c4:	ff 15 16 0a 20 00    	call   QWORD PTR [rip+0x200a16]        # 200fe0 <__libc_start_main@GLIBC_2.2.5>
 5ca:	f4                   	hlt    
 5cb:	0f 1f 44 00 00       	nop    DWORD PTR [rax+rax*1+0x0]

00000000000005d0 <deregister_tm_clones>:
 5d0:	48 8d 3d 39 0a 20 00 	lea    rdi,[rip+0x200a39]        # 201010 <__TMC_END__>
 5d7:	55                   	push   rbp
 5d8:	48 8d 05 31 0a 20 00 	lea    rax,[rip+0x200a31]        # 201010 <__TMC_END__>
 5df:	48 39 f8             	cmp    rax,rdi
 5e2:	48 89 e5             	mov    rbp,rsp
 5e5:	74 19                	je     600 <deregister_tm_clones+0x30>
 5e7:	48 8b 05 ea 09 20 00 	mov    rax,QWORD PTR [rip+0x2009ea]        # 200fd8 <_ITM_deregisterTMCloneTable>
 5ee:	48 85 c0             	test   rax,rax
 5f1:	74 0d                	je     600 <deregister_tm_clones+0x30>
 5f3:	5d                   	pop    rbp
 5f4:	ff e0                	jmp    rax
 5f6:	66 2e 0f 1f 84 00 00 	nop    WORD PTR cs:[rax+rax*1+0x0]
 5fd:	00 00 00 
 600:	5d                   	pop    rbp
 601:	c3                   	ret    
 602:	0f 1f 40 00          	nop    DWORD PTR [rax+0x0]
 606:	66 2e 0f 1f 84 00 00 	nop    WORD PTR cs:[rax+rax*1+0x0]
 60d:	00 00 00 

0000000000000610 <register_tm_clones>:
 610:	48 8d 3d f9 09 20 00 	lea    rdi,[rip+0x2009f9]        # 201010 <__TMC_END__>
 617:	48 8d 35 f2 09 20 00 	lea    rsi,[rip+0x2009f2]        # 201010 <__TMC_END__>
 61e:	55                   	push   rbp
 61f:	48 29 fe             	sub    rsi,rdi
 622:	48 89 e5             	mov    rbp,rsp
 625:	48 c1 fe 03          	sar    rsi,0x3
 629:	48 89 f0             	mov    rax,rsi
 62c:	48 c1 e8 3f          	shr    rax,0x3f
 630:	48 01 c6             	add    rsi,rax
 633:	48 d1 fe             	sar    rsi,1
 636:	74 18                	je     650 <register_tm_clones+0x40>
 638:	48 8b 05 b1 09 20 00 	mov    rax,QWORD PTR [rip+0x2009b1]        # 200ff0 <_ITM_registerTMCloneTable>
 63f:	48 85 c0             	test   rax,rax
 642:	74 0c                	je     650 <register_tm_clones+0x40>
 644:	5d                   	pop    rbp
 645:	ff e0                	jmp    rax
 647:	66 0f 1f 84 00 00 00 	nop    WORD PTR [rax+rax*1+0x0]
 64e:	00 00 
 650:	5d                   	pop    rbp
 651:	c3                   	ret    
 652:	0f 1f 40 00          	nop    DWORD PTR [rax+0x0]
 656:	66 2e 0f 1f 84 00 00 	nop    WORD PTR cs:[rax+rax*1+0x0]
 65d:	00 00 00 

0000000000000660 <__do_global_dtors_aux>:
 660:	80 3d a9 09 20 00 00 	cmp    BYTE PTR [rip+0x2009a9],0x0        # 201010 <__TMC_END__>
 667:	75 2f                	jne    698 <__do_global_dtors_aux+0x38>
 669:	48 83 3d 87 09 20 00 	cmp    QWORD PTR [rip+0x200987],0x0        # 200ff8 <__cxa_finalize@GLIBC_2.2.5>
 670:	00 
 671:	55                   	push   rbp
 672:	48 89 e5             	mov    rbp,rsp
 675:	74 0c                	je     683 <__do_global_dtors_aux+0x23>
 677:	48 8b 3d 8a 09 20 00 	mov    rdi,QWORD PTR [rip+0x20098a]        # 201008 <__dso_handle>
 67e:	e8 0d ff ff ff       	call   590 <__cxa_finalize@plt>
 683:	e8 48 ff ff ff       	call   5d0 <deregister_tm_clones>
 688:	c6 05 81 09 20 00 01 	mov    BYTE PTR [rip+0x200981],0x1        # 201010 <__TMC_END__>
 68f:	5d                   	pop    rbp
 690:	c3                   	ret    
 691:	0f 1f 80 00 00 00 00 	nop    DWORD PTR [rax+0x0]
 698:	f3 c3                	repz ret 
 69a:	66 0f 1f 44 00 00    	nop    WORD PTR [rax+rax*1+0x0]

00000000000006a0 <frame_dummy>:
 6a0:	55                   	push   rbp
 6a1:	48 89 e5             	mov    rbp,rsp
 6a4:	5d                   	pop    rbp
 6a5:	e9 66 ff ff ff       	jmp    610 <register_tm_clones>

00000000000006aa <main>:
 6aa:	55                   	push   rbp
 6ab:	48 89 e5             	mov    rbp,rsp
 6ae:	48 81 ec c0 41 06 00 	sub    rsp,0x641c0
 6b5:	64 48 8b 04 25 28 00 	mov    rax,QWORD PTR fs:0x28
 6bc:	00 00 
 6be:	48 89 45 f8          	mov    QWORD PTR [rbp-0x8],rax
 6c2:	31 c0                	xor    eax,eax
 6c4:	c7 85 48 be f9 ff 00 	mov    DWORD PTR [rbp-0x641b8],0x0
 6cb:	00 00 00 
 6ce:	c7 85 4c be f9 ff 00 	mov    DWORD PTR [rbp-0x641b4],0x0
 6d5:	00 00 00 
 6d8:	eb 1c                	jmp    6f6 <main+0x4c>
 6da:	8b 85 4c be f9 ff    	mov    eax,DWORD PTR [rbp-0x641b4]
 6e0:	48 98                	cdqe   
 6e2:	8b 95 4c be f9 ff    	mov    edx,DWORD PTR [rbp-0x641b4]
 6e8:	89 94 85 60 be f9 ff 	mov    DWORD PTR [rbp+rax*4-0x641a0],edx
 6ef:	83 85 4c be f9 ff 01 	add    DWORD PTR [rbp-0x641b4],0x1
 6f6:	83 bd 4c be f9 ff 63 	cmp    DWORD PTR [rbp-0x641b4],0x63
 6fd:	7e db                	jle    6da <main+0x30>
 6ff:	48 8d 85 60 be f9 ff 	lea    rax,[rbp-0x641a0]
 706:	48 05 90 01 00 00    	add    rax,0x190
 70c:	48 89 85 58 be f9 ff 	mov    QWORD PTR [rbp-0x641a8],rax
 713:	48 8b 85 58 be f9 ff 	mov    rax,QWORD PTR [rbp-0x641a8]
 71a:	c7 00 c8 00 00 00    	mov    DWORD PTR [rax],0xc8
 720:	48 8d 85 60 be f9 ff 	lea    rax,[rbp-0x641a0]
 727:	48 89 c6             	mov    rsi,rax
 72a:	48 8d 3d 73 01 00 00 	lea    rdi,[rip+0x173]        # 8a4 <_IO_stdin_used+0x4>
 731:	b8 00 00 00 00       	mov    eax,0x0
 736:	e8 45 fe ff ff       	call   580 <printf@plt>
 73b:	48 8d 85 f0 bf f9 ff 	lea    rax,[rbp-0x64010]
 742:	48 89 c6             	mov    rsi,rax
 745:	48 8d 3d 64 01 00 00 	lea    rdi,[rip+0x164]        # 8b0 <_IO_stdin_used+0x10>
 74c:	b8 00 00 00 00       	mov    eax,0x0
 751:	e8 2a fe ff ff       	call   580 <printf@plt>
 756:	48 8d 85 60 be f9 ff 	lea    rax,[rbp-0x641a0]
 75d:	48 05 90 01 00 00    	add    rax,0x190
 763:	48 89 c6             	mov    rsi,rax
 766:	48 8d 3d 4f 01 00 00 	lea    rdi,[rip+0x14f]        # 8bc <_IO_stdin_used+0x1c>
 76d:	b8 00 00 00 00       	mov    eax,0x0
 772:	e8 09 fe ff ff       	call   580 <printf@plt>
 777:	48 8b 85 58 be f9 ff 	mov    rax,QWORD PTR [rbp-0x641a8]
 77e:	48 89 c6             	mov    rsi,rax
 781:	48 8d 3d 34 01 00 00 	lea    rdi,[rip+0x134]        # 8bc <_IO_stdin_used+0x1c>
 788:	b8 00 00 00 00       	mov    eax,0x0
 78d:	e8 ee fd ff ff       	call   580 <printf@plt>
 792:	c7 85 50 be f9 ff 64 	mov    DWORD PTR [rbp-0x641b0],0x64
 799:	00 00 00 
 79c:	8b 85 48 be f9 ff    	mov    eax,DWORD PTR [rbp-0x641b8]
 7a2:	3b 85 50 be f9 ff    	cmp    eax,DWORD PTR [rbp-0x641b0]
 7a8:	7d 40                	jge    7ea <main+0x140>
 7aa:	8b 85 48 be f9 ff    	mov    eax,DWORD PTR [rbp-0x641b8]
 7b0:	48 98                	cdqe   
 7b2:	8b 84 85 60 be f9 ff 	mov    eax,DWORD PTR [rbp+rax*4-0x641a0]
 7b9:	c1 e0 0a             	shl    eax,0xa
 7bc:	48 98                	cdqe   
 7be:	8b 84 85 f0 bf f9 ff 	mov    eax,DWORD PTR [rbp+rax*4-0x64010]
 7c5:	89 85 54 be f9 ff    	mov    DWORD PTR [rbp-0x641ac],eax
 7cb:	8b 95 54 be f9 ff    	mov    edx,DWORD PTR [rbp-0x641ac]
 7d1:	8b 85 48 be f9 ff    	mov    eax,DWORD PTR [rbp-0x641b8]
 7d7:	89 c6                	mov    esi,eax
 7d9:	48 8d 3d e0 00 00 00 	lea    rdi,[rip+0xe0]        # 8c0 <_IO_stdin_used+0x20>
 7e0:	b8 00 00 00 00       	mov    eax,0x0
 7e5:	e8 96 fd ff ff       	call   580 <printf@plt>
 7ea:	83 85 48 be f9 ff 01 	add    DWORD PTR [rbp-0x641b8],0x1
 7f1:	83 bd 48 be f9 ff 65 	cmp    DWORD PTR [rbp-0x641b8],0x65
 7f8:	74 02                	je     7fc <main+0x152>
 7fa:	eb a0                	jmp    79c <main+0xf2>
 7fc:	90                   	nop
 7fd:	b8 00 00 00 00       	mov    eax,0x0
 802:	48 8b 4d f8          	mov    rcx,QWORD PTR [rbp-0x8]
 806:	64 48 33 0c 25 28 00 	xor    rcx,QWORD PTR fs:0x28
 80d:	00 00 
 80f:	74 05                	je     816 <main+0x16c>
 811:	e8 5a fd ff ff       	call   570 <__stack_chk_fail@plt>
 816:	c9                   	leave  
 817:	c3                   	ret    
 818:	0f 1f 84 00 00 00 00 	nop    DWORD PTR [rax+rax*1+0x0]
 81f:	00 

0000000000000820 <__libc_csu_init>:
 820:	41 57                	push   r15
 822:	41 56                	push   r14
 824:	49 89 d7             	mov    r15,rdx
 827:	41 55                	push   r13
 829:	41 54                	push   r12
 82b:	4c 8d 25 7e 05 20 00 	lea    r12,[rip+0x20057e]        # 200db0 <__frame_dummy_init_array_entry>
 832:	55                   	push   rbp
 833:	48 8d 2d 7e 05 20 00 	lea    rbp,[rip+0x20057e]        # 200db8 <__init_array_end>
 83a:	53                   	push   rbx
 83b:	41 89 fd             	mov    r13d,edi
 83e:	49 89 f6             	mov    r14,rsi
 841:	4c 29 e5             	sub    rbp,r12
 844:	48 83 ec 08          	sub    rsp,0x8
 848:	48 c1 fd 03          	sar    rbp,0x3
 84c:	e8 f7 fc ff ff       	call   548 <_init>
 851:	48 85 ed             	test   rbp,rbp
 854:	74 20                	je     876 <__libc_csu_init+0x56>
 856:	31 db                	xor    ebx,ebx
 858:	0f 1f 84 00 00 00 00 	nop    DWORD PTR [rax+rax*1+0x0]
 85f:	00 
 860:	4c 89 fa             	mov    rdx,r15
 863:	4c 89 f6             	mov    rsi,r14
 866:	44 89 ef             	mov    edi,r13d
 869:	41 ff 14 dc          	call   QWORD PTR [r12+rbx*8]
 86d:	48 83 c3 01          	add    rbx,0x1
 871:	48 39 dd             	cmp    rbp,rbx
 874:	75 ea                	jne    860 <__libc_csu_init+0x40>
 876:	48 83 c4 08          	add    rsp,0x8
 87a:	5b                   	pop    rbx
 87b:	5d                   	pop    rbp
 87c:	41 5c                	pop    r12
 87e:	41 5d                	pop    r13
 880:	41 5e                	pop    r14
 882:	41 5f                	pop    r15
 884:	c3                   	ret    
 885:	90                   	nop
 886:	66 2e 0f 1f 84 00 00 	nop    WORD PTR cs:[rax+rax*1+0x0]
 88d:	00 00 00 

0000000000000890 <__libc_csu_fini>:
 890:	f3 c3                	repz ret 

Disassembly of section .fini:

0000000000000894 <_fini>:
 894:	48 83 ec 08          	sub    rsp,0x8
 898:	48 83 c4 08          	add    rsp,0x8
 89c:	c3                   	ret    
